target datalayout = "e-m:e-p270:32:32-p271:32:32-p272:64:64-i64:64-i128:128-f80:128-n8:16:32:64-S128"
target triple = "x86_64-pc-linux-gnu"

%struct.CLAMFI = type { ptr, ptr, ptr, ptr, ptr, i32, i32, i32, i32, i32, i32, i32, i32, i32, i32, i32, [1424 x i8] }

@addxvirus = dso_local global i32 0, align 4
@viraction = dso_local global ptr null, align 8
@.str = private unnamed_addr constant [42 x i8] c"Skipping scan (all destinations allowed)\0A\00", align 1
@loginfected = dso_local global i32 0, align 4
@.str.1 = private unnamed_addr constant [8 x i8] c"Subject\00", align 1
@.str.2 = private unnamed_addr constant [1 x i8] zeroinitializer, align 1
@.str.3 = private unnamed_addr constant [5 x i8] c"Date\00", align 1
@.str.4 = private unnamed_addr constant [11 x i8] c"Message-ID\00", align 1
@.str.5 = private unnamed_addr constant [16 x i8] c"X-Virus-Scanned\00", align 1
@.str.6 = private unnamed_addr constant [15 x i8] c"X-Virus-Status\00", align 1
@.str.7 = private unnamed_addr constant [3 x i8] c": \00", align 1
@.str.8 = private unnamed_addr constant [3 x i8] c"\0D\0A\00", align 1

; Function Attrs: nounwind uwtable
define dso_local i32 @clamfi_header(ptr noundef %0, ptr noundef %1, ptr noundef %2) #0 {
  %4 = alloca i32, align 4
  %5 = alloca ptr, align 8
  %6 = alloca ptr, align 8
  %7 = alloca ptr, align 8
  %8 = alloca ptr, align 8
  %9 = alloca i32, align 4
  store ptr %0, ptr %5, align 8
  store ptr %1, ptr %6, align 8
  store ptr %2, ptr %7, align 8
  %10 = load ptr, ptr %5, align 8
  %11 = call ptr @smfi_getpriv(ptr noundef %10)
  store ptr %11, ptr %8, align 8
  %12 = icmp ne ptr %11, null
  br i1 %12, label %14, label %13

13:                                               ; preds = %3
  store i32 0, ptr %4, align 4
  br label %166

14:                                               ; preds = %3
  %15 = load ptr, ptr %8, align 8
  %16 = getelementptr inbounds %struct.CLAMFI, ptr %15, i32 0, i32 8
  %17 = load i32, ptr %16, align 4
  %18 = icmp ne i32 %17, 0
  br i1 %18, label %29, label %19

19:                                               ; preds = %14
  %20 = load ptr, ptr %8, align 8
  %21 = getelementptr inbounds %struct.CLAMFI, ptr %20, i32 0, i32 10
  %22 = load i32, ptr %21, align 4
  %23 = icmp ne i32 %22, 0
  br i1 %23, label %24, label %29

24:                                               ; preds = %19
  %25 = call i32 (i32, ptr, ...) @logg(i32 noundef 2, ptr noundef @.str)
  %26 = load ptr, ptr %5, align 8
  %27 = load ptr, ptr %8, align 8
  call void @nullify(ptr noundef %26, ptr noundef %27, i32 noundef 0)
  %28 = load ptr, ptr %8, align 8
  call void @free(ptr noundef %28) #9
  store i32 3, ptr %4, align 4
  br label %166

29:                                               ; preds = %19, %14
  %30 = load ptr, ptr %6, align 8
  %31 = icmp ne ptr %30, null
  br i1 %31, label %33, label %32

32:                                               ; preds = %29
  store i32 0, ptr %4, align 4
  br label %166

33:                                               ; preds = %29
  %34 = load i32, ptr @loginfected, align 4
  %35 = and i32 %34, 10
  %36 = icmp ne i32 %35, 0
  br i1 %36, label %40, label %37

37:                                               ; preds = %33
  %38 = load ptr, ptr @viraction, align 8
  %39 = icmp ne ptr %38, null
  br i1 %39, label %40, label %101

40:                                               ; preds = %37, %33
  %41 = load ptr, ptr %8, align 8
  %42 = getelementptr inbounds %struct.CLAMFI, ptr %41, i32 0, i32 1
  %43 = load ptr, ptr %42, align 8
  %44 = icmp ne ptr %43, null
  br i1 %44, label %60, label %45

45:                                               ; preds = %40
  %46 = load ptr, ptr %6, align 8
  %47 = call i32 @strcasecmp(ptr noundef %46, ptr noundef @.str.1) #10
  %48 = icmp ne i32 %47, 0
  br i1 %48, label %60, label %49

49:                                               ; preds = %45
  %50 = load ptr, ptr %7, align 8
  %51 = icmp ne ptr %50, null
  br i1 %51, label %52, label %54

52:                                               ; preds = %49
  %53 = load ptr, ptr %7, align 8
  br label %55

54:                                               ; preds = %49
  br label %55

55:                                               ; preds = %54, %52
  %56 = phi ptr [ %53, %52 ], [ @.str.2, %54 ]
  %57 = call noalias ptr @strdup(ptr noundef %56) #9
  %58 = load ptr, ptr %8, align 8
  %59 = getelementptr inbounds %struct.CLAMFI, ptr %58, i32 0, i32 1
  store ptr %57, ptr %59, align 8
  br label %60

60:                                               ; preds = %55, %45, %40
  %61 = load ptr, ptr %8, align 8
  %62 = getelementptr inbounds %struct.CLAMFI, ptr %61, i32 0, i32 2
  %63 = load ptr, ptr %62, align 8
  %64 = icmp ne ptr %63, null
  br i1 %64, label %80, label %65

65:                                               ; preds = %60
  %66 = load ptr, ptr %6, align 8
  %67 = call i32 @strcasecmp(ptr noundef %66, ptr noundef @.str.3) #10
  %68 = icmp ne i32 %67, 0
  br i1 %68, label %80, label %69

69:                                               ; preds = %65
  %70 = load ptr, ptr %7, align 8
  %71 = icmp ne ptr %70, null
  br i1 %71, label %72, label %74

72:                                               ; preds = %69
  %73 = load ptr, ptr %7, align 8
  br label %75

74:                                               ; preds = %69
  br label %75

75:                                               ; preds = %74, %72
  %76 = phi ptr [ %73, %72 ], [ @.str.2, %74 ]
  %77 = call noalias ptr @strdup(ptr noundef %76) #9
  %78 = load ptr, ptr %8, align 8
  %79 = getelementptr inbounds %struct.CLAMFI, ptr %78, i32 0, i32 2
  store ptr %77, ptr %79, align 8
  br label %80

80:                                               ; preds = %75, %65, %60
  %81 = load ptr, ptr %8, align 8
  %82 = getelementptr inbounds %struct.CLAMFI, ptr %81, i32 0, i32 3
  %83 = load ptr, ptr %82, align 8
  %84 = icmp ne ptr %83, null
  br i1 %84, label %100, label %85

85:                                               ; preds = %80
  %86 = load ptr, ptr %6, align 8
  %87 = call i32 @strcasecmp(ptr noundef %86, ptr noundef @.str.4) #10
  %88 = icmp ne i32 %87, 0
  br i1 %88, label %100, label %89

89:                                               ; preds = %85
  %90 = load ptr, ptr %7, align 8
  %91 = icmp ne ptr %90, null
  br i1 %91, label %92, label %94

92:                                               ; preds = %89
  %93 = load ptr, ptr %7, align 8
  br label %95

94:                                               ; preds = %89
  br label %95

95:                                               ; preds = %94, %92
  %96 = phi ptr [ %93, %92 ], [ @.str.2, %94 ]
  %97 = call noalias ptr @strdup(ptr noundef %96) #9
  %98 = load ptr, ptr %8, align 8
  %99 = getelementptr inbounds %struct.CLAMFI, ptr %98, i32 0, i32 3
  store ptr %97, ptr %99, align 8
  br label %100

100:                                              ; preds = %95, %85, %80
  br label %101

101:                                              ; preds = %100, %37
  %102 = load i32, ptr @addxvirus, align 4
  %103 = icmp eq i32 %102, 1
  br i1 %103, label %104, label %123

104:                                              ; preds = %101
  %105 = load ptr, ptr %6, align 8
  %106 = call i32 @strcasecmp(ptr noundef %105, ptr noundef @.str.5) #10
  %107 = icmp ne i32 %106, 0
  br i1 %107, label %113, label %108

108:                                              ; preds = %104
  %109 = load ptr, ptr %8, align 8
  %110 = getelementptr inbounds %struct.CLAMFI, ptr %109, i32 0, i32 12
  %111 = load i32, ptr %110, align 4
  %112 = add i32 %111, 1
  store i32 %112, ptr %110, align 4
  br label %113

113:                                              ; preds = %108, %104
  %114 = load ptr, ptr %6, align 8
  %115 = call i32 @strcasecmp(ptr noundef %114, ptr noundef @.str.6) #10
  %116 = icmp ne i32 %115, 0
  br i1 %116, label %122, label %117

117:                                              ; preds = %113
  %118 = load ptr, ptr %8, align 8
  %119 = getelementptr inbounds %struct.CLAMFI, ptr %118, i32 0, i32 13
  %120 = load i32, ptr %119, align 8
  %121 = add i32 %120, 1
  store i32 %121, ptr %119, align 8
  br label %122

122:                                              ; preds = %117, %113
  br label %123

123:                                              ; preds = %122, %101
  %124 = load ptr, ptr %8, align 8
  %125 = load ptr, ptr %6, align 8
  %126 = load ptr, ptr %6, align 8
  %127 = call i64 @strlen(ptr noundef %126) #10
  %128 = load ptr, ptr %5, align 8
  %129 = call i32 @sendchunk(ptr noundef %124, ptr noundef %125, i64 noundef %127, ptr noundef %128)
  store i32 %129, ptr %9, align 4
  %130 = icmp ne i32 %129, 0
  br i1 %130, label %131, label %134

131:                                              ; preds = %123
  %132 = load ptr, ptr %8, align 8
  call void @free(ptr noundef %132) #9
  %133 = load i32, ptr %9, align 4
  store i32 %133, ptr %4, align 4
  br label %166

134:                                              ; preds = %123
  %135 = load ptr, ptr %8, align 8
  %136 = load ptr, ptr %5, align 8
  %137 = call i32 @sendchunk(ptr noundef %135, ptr noundef @.str.7, i64 noundef 2, ptr noundef %136)
  store i32 %137, ptr %9, align 4
  %138 = icmp ne i32 %137, 0
  br i1 %138, label %139, label %142

139:                                              ; preds = %134
  %140 = load ptr, ptr %8, align 8
  call void @free(ptr noundef %140) #9
  %141 = load i32, ptr %9, align 4
  store i32 %141, ptr %4, align 4
  br label %166

142:                                              ; preds = %134
  %143 = load ptr, ptr %7, align 8
  %144 = icmp ne ptr %143, null
  br i1 %144, label %145, label %156

145:                                              ; preds = %142
  %146 = load ptr, ptr %8, align 8
  %147 = load ptr, ptr %7, align 8
  %148 = load ptr, ptr %7, align 8
  %149 = call i64 @strlen(ptr noundef %148) #10
  %150 = load ptr, ptr %5, align 8
  %151 = call i32 @sendchunk(ptr noundef %146, ptr noundef %147, i64 noundef %149, ptr noundef %150)
  store i32 %151, ptr %9, align 4
  %152 = icmp ne i32 %151, 0
  br i1 %152, label %153, label %156

153:                                              ; preds = %145
  %154 = load ptr, ptr %8, align 8
  call void @free(ptr noundef %154) #9
  %155 = load i32, ptr %9, align 4
  store i32 %155, ptr %4, align 4
  br label %166

156:                                              ; preds = %145, %142
  %157 = load ptr, ptr %8, align 8
  %158 = load ptr, ptr %5, align 8
  %159 = call i32 @sendchunk(ptr noundef %157, ptr noundef @.str.8, i64 noundef 2, ptr noundef %158)
  store i32 %159, ptr %9, align 4
  %160 = load i32, ptr %9, align 4
  %161 = icmp ne i32 %160, 0
  br i1 %161, label %162, label %164

162:                                              ; preds = %156
  %163 = load ptr, ptr %8, align 8
  call void @free(ptr noundef %163) #9
  br label %164

164:                                              ; preds = %162, %156
  %165 = load i32, ptr %9, align 4
  store i32 %165, ptr %4, align 4
  br label %166

166:                                              ; preds = %164, %153, %139, %131, %32, %24, %13
  %167 = load i32, ptr %4, align 4
  ret i32 %167
}