; Function Attrs: nounwind uwtable
define dso_local i32 @clamfi_header(ptr noundef %0, ptr noundef %1, ptr noundef %2) local_unnamed_addr #0 {
  %4 = tail call ptr @smfi_getpriv(ptr noundef %0) #17
  %.not = icmp eq ptr %4, null
  br i1 %.not, label %70, label %5

5:                                                ; preds = %3
  %6 = getelementptr inbounds i8, ptr %4, i64 52
  %7 = load i32, ptr %6, align 4
  %.not55 = icmp eq i32 %7, 0
  br i1 %.not55, label %8, label %13

8:                                                ; preds = %5
  %9 = getelementptr inbounds i8, ptr %4, i64 60
  %10 = load i32, ptr %9, align 4
  %.not56 = icmp eq i32 %10, 0
  br i1 %.not56, label %13, label %11

11:                                               ; preds = %8
  %12 = tail call i32 (i32, ptr, ...) @logg(i32 noundef 2, ptr noundef nonnull @.str) #17
  tail call fastcc void @nullify(ptr noundef %0, ptr noundef nonnull %4, i32 noundef 0)
  br label %.sink.split

13:                                               ; preds = %8, %5
  %.not57 = icmp eq ptr %1, null
  br i1 %.not57, label %70, label %14

14:                                               ; preds = %13
  %15 = load i32, ptr @loginfected, align 4
  %16 = and i32 %15, 10
  %17 = icmp ne i32 %16, 0
  %18 = load ptr, ptr @viraction, align 8
  %19 = icmp ne ptr %18, null
  %or.cond = select i1 %17, i1 true, i1 %19
  br i1 %or.cond, label %20, label %44

20:                                               ; preds = %14
  %21 = getelementptr inbounds i8, ptr %4, i64 8
  %22 = load ptr, ptr %21, align 8
  %.not58 = icmp eq ptr %22, null
  br i1 %.not58, label %23, label %28

23:                                               ; preds = %20
  %24 = tail call i32 @strcasecmp(ptr noundef nonnull %1, ptr noundef nonnull @.str.1) #18
  %.not59 = icmp eq i32 %24, 0
  br i1 %.not59, label %25, label %28

25:                                               ; preds = %23
  %.not60 = icmp eq ptr %2, null
  %26 = select i1 %.not60, ptr @.str.2, ptr %2
  %27 = tail call noalias ptr @strdup(ptr noundef nonnull %26) #17
  store ptr %27, ptr %21, align 8
  br label %28

28:                                               ; preds = %25, %23, %20
  %29 = getelementptr inbounds i8, ptr %4, i64 16
  %30 = load ptr, ptr %29, align 8
  %.not61 = icmp eq ptr %30, null
  br i1 %.not61, label %31, label %36

31:                                               ; preds = %28
  %32 = tail call i32 @strcasecmp(ptr noundef nonnull %1, ptr noundef nonnull @.str.3) #18
  %.not62 = icmp eq i32 %32, 0
  br i1 %.not62, label %33, label %36

33:                                               ; preds = %31
  %.not63 = icmp eq ptr %2, null
  %34 = select i1 %.not63, ptr @.str.2, ptr %2
  %35 = tail call noalias ptr @strdup(ptr noundef nonnull %34) #17
  store ptr %35, ptr %29, align 8
  br label %36

36:                                               ; preds = %33, %31, %28
  %37 = getelementptr inbounds i8, ptr %4, i64 24
  %38 = load ptr, ptr %37, align 8
  %.not64 = icmp eq ptr %38, null
  br i1 %.not64, label %39, label %44

39:                                               ; preds = %36
  %40 = tail call i32 @strcasecmp(ptr noundef nonnull %1, ptr noundef nonnull @.str.4) #18
  %.not65 = icmp eq i32 %40, 0
  br i1 %.not65, label %41, label %44

41:                                               ; preds = %39
  %.not66 = icmp eq ptr %2, null
  %42 = select i1 %.not66, ptr @.str.2, ptr %2
  %43 = tail call noalias ptr @strdup(ptr noundef nonnull %42) #17
  store ptr %43, ptr %37, align 8
  br label %44

44:                                               ; preds = %36, %39, %41, %14
  %45 = load i32, ptr @addxvirus, align 4
  %46 = icmp eq i32 %45, 1
  br i1 %46, label %47, label %59

47:                                               ; preds = %44
  %48 = tail call i32 @strcasecmp(ptr noundef nonnull %1, ptr noundef nonnull @.str.5) #18
  %.not67 = icmp eq i32 %48, 0
  br i1 %.not67, label %49, label %53

49:                                               ; preds = %47
  %50 = getelementptr inbounds i8, ptr %4, i64 68
  %51 = load i32, ptr %50, align 4
  %52 = add i32 %51, 1
  store i32 %52, ptr %50, align 4
  br label %53

53:                                               ; preds = %49, %47
  %54 = tail call i32 @strcasecmp(ptr noundef nonnull %1, ptr noundef nonnull @.str.6) #18
  %.not68 = icmp eq i32 %54, 0
  br i1 %.not68, label %55, label %59

55:                                               ; preds = %53
  %56 = getelementptr inbounds i8, ptr %4, i64 72
  %57 = load i32, ptr %56, align 8
  %58 = add i32 %57, 1
  store i32 %58, ptr %56, align 8
  br label %59

59:                                               ; preds = %53, %55, %44
  %60 = tail call i64 @strlen(ptr noundef nonnull dereferenceable(1) %1) #18
  %61 = tail call fastcc i32 @sendchunk(ptr noundef nonnull %4, ptr noundef nonnull %1, i64 noundef %60, ptr noundef %0)
  %.not69 = icmp eq i32 %61, 0
  br i1 %.not69, label %62, label %.sink.split

62:                                               ; preds = %59
  %63 = tail call fastcc i32 @sendchunk(ptr noundef nonnull %4, ptr noundef nonnull @.str.7, i64 noundef 2, ptr noundef %0)
  %.not70 = icmp eq i32 %63, 0
  br i1 %.not70, label %64, label %.sink.split

64:                                               ; preds = %62
  %.not71 = icmp eq ptr %2, null
  br i1 %.not71, label %68, label %65

65:                                               ; preds = %64
  %66 = tail call i64 @strlen(ptr noundef nonnull dereferenceable(1) %2) #18
  %67 = tail call fastcc i32 @sendchunk(ptr noundef nonnull %4, ptr noundef nonnull %2, i64 noundef %66, ptr noundef %0)
  %.not72 = icmp eq i32 %67, 0
  br i1 %.not72, label %68, label %.sink.split

68:                                               ; preds = %65, %64
  %69 = tail call fastcc i32 @sendchunk(ptr noundef nonnull %4, ptr noundef nonnull @.str.8, i64 noundef 2, ptr noundef %0)
  %.not73 = icmp eq i32 %69, 0
  br i1 %.not73, label %70, label %.sink.split

.sink.split:                                      ; preds = %68, %65, %62, %59, %11
  %.0.ph = phi i32 [ 3, %11 ], [ %61, %59 ], [ %63, %62 ], [ %67, %65 ], [ %69, %68 ]
  tail call void @free(ptr noundef nonnull %4) #17
  br label %70

70:                                               ; preds = %.sink.split, %68, %13, %3
  %.0 = phi i32 [ 0, %3 ], [ 0, %13 ], [ 0, %68 ], [ %.0.ph, %.sink.split ]
  ret i32 %.0
}